target datalayout = "e-m:e-p270:32:32-p271:32:32-p272:64:64-i64:64-i128:128-f80:128-n8:16:32:64-S128"
target triple = "x86_64-pc-linux-gnu"

%struct.__va_list_tag = type { i32, i32, ptr, ptr }

@c_BIO_vsnprintf = internal global ptr null, align 8

; Function Attrs: nounwind uwtable
define internal i32 @local_snprintf(ptr noundef %0, i64 noundef %1, ptr noundef %2, ...) #0 {
  %4 = alloca ptr, align 8
  %5 = alloca i64, align 8
  %6 = alloca ptr, align 8
  %7 = alloca [1 x %struct.__va_list_tag], align 16
  %8 = alloca i32, align 4
  store ptr %0, ptr %4, align 8, !tbaa !32
  store i64 %1, ptr %5, align 8, !tbaa !39
  store ptr %2, ptr %6, align 8, !tbaa !32
  call void @llvm.lifetime.start.p0(i64 24, ptr %7) #8
  call void @llvm.lifetime.start.p0(i64 4, ptr %8) #8
  %9 = getelementptr inbounds [1 x %struct.__va_list_tag], ptr %7, i64 0, i64 0
  call void @llvm.va_start.p0(ptr %9)
  %10 = load ptr, ptr @c_BIO_vsnprintf, align 8, !tbaa !13
  %11 = load ptr, ptr %4, align 8, !tbaa !32
  %12 = load i64, ptr %5, align 8, !tbaa !39
  %13 = load ptr, ptr %6, align 8, !tbaa !32
  %14 = getelementptr inbounds [1 x %struct.__va_list_tag], ptr %7, i64 0, i64 0
  %15 = call i32 %10(ptr noundef %11, i64 noundef %12, ptr noundef %13, ptr noundef %14)
  store i32 %15, ptr %8, align 4, !tbaa !31
  %16 = getelementptr inbounds [1 x %struct.__va_list_tag], ptr %7, i64 0, i64 0
  call void @llvm.va_end.p0(ptr %16)
  %17 = load i32, ptr %8, align 4, !tbaa !31
  call void @llvm.lifetime.end.p0(i64 4, ptr %8) #8
  call void @llvm.lifetime.end.p0(i64 24, ptr %7) #8
  ret i32 %17
}