; Function Attrs: nounwind uwtable
define internal void @local_snprintf(ptr noundef nonnull %0, i64 %1, ptr noundef %2, ...) unnamed_addr #0 {
  %4 = alloca [1 x %struct.__va_list_tag], align 16
  call void @llvm.lifetime.start.p0(i64 24, ptr nonnull %4) #12
  call void @llvm.va_start.p0(ptr nonnull %4)
  %5 = load ptr, ptr @c_BIO_vsnprintf, align 8, !tbaa !11
  %6 = call i32 %5(ptr noundef nonnull %0, i64 noundef 256, ptr noundef %2, ptr noundef nonnull %4) #12
  call void @llvm.va_end.p0(ptr nonnull %4)
  call void @llvm.lifetime.end.p0(i64 24, ptr nonnull %4) #12
  ret void
}